target datalayout = "e-m:e-p270:32:32-p271:32:32-p272:64:64-i64:64-i128:128-f80:128-n8:16:32:64-S128"
target triple = "x86_64-pc-linux-gnu"

%struct.stbi_io_callbacks = type { ptr, ptr, ptr }
%struct.stbi__context = type { i32, i32, i32, i32, %struct.stbi_io_callbacks, ptr, i32, i32, [128 x i8], i32, ptr, ptr, ptr, ptr }
%struct.stbi__gif = type { i32, i32, ptr, ptr, ptr, i32, i32, i32, i32, i32, [256 x [4 x i8]], [256 x [4 x i8]], [8192 x %struct.stbi__gif_lzw], ptr, i32, i32, i32, i32, i32, i32, i32, i32, i32, i32, i32 }
%struct.stbi__gif_lzw = type { i16, i8, i8 }

@stbi__g_failure_reason = thread_local global ptr null, align 8
@.str.1 = private unnamed_addr constant [9 x i8] c"outofmem\00", align 1

; Function Attrs: nounwind uwtable
define void @stbi__rewind(ptr noundef %0) #0 {
  %2 = alloca ptr, align 8
  store ptr %0, ptr %2, align 8, !tbaa !3
  %3 = load ptr, ptr %2, align 8, !tbaa !3
  %4 = getelementptr inbounds nuw %struct.stbi__context, ptr %3, i32 0, i32 12
  %5 = load ptr, ptr %4, align 8, !tbaa !16
  %6 = load ptr, ptr %2, align 8, !tbaa !3
  %7 = getelementptr inbounds nuw %struct.stbi__context, ptr %6, i32 0, i32 10
  store ptr %5, ptr %7, align 8, !tbaa !17
  %8 = load ptr, ptr %2, align 8, !tbaa !3
  %9 = getelementptr inbounds nuw %struct.stbi__context, ptr %8, i32 0, i32 13
  %10 = load ptr, ptr %9, align 8, !tbaa !18
  %11 = load ptr, ptr %2, align 8, !tbaa !3
  %12 = getelementptr inbounds nuw %struct.stbi__context, ptr %11, i32 0, i32 11
  store ptr %10, ptr %12, align 8, !tbaa !19
  ret void
}

; Function Attrs: nounwind uwtable
define i32 @stbi__err(ptr noundef %0) #0 {
  %2 = alloca ptr, align 8
  store ptr %0, ptr %2, align 8, !tbaa !7
  %3 = load ptr, ptr %2, align 8, !tbaa !7
  %4 = call align 8 ptr @llvm.threadlocal.address.p0(ptr align 8 @stbi__g_failure_reason)
  store ptr %3, ptr %4, align 8, !tbaa !7
  ret i32 0
}

; Function Attrs: nounwind uwtable
define ptr @stbi__malloc(i64 noundef %0) #0 {
  %2 = alloca i64, align 8
  store i64 %0, ptr %2, align 8, !tbaa !26
  %3 = load i64, ptr %2, align 8, !tbaa !26
  %4 = call noalias ptr @malloc(i64 noundef %3) #14
  ret ptr %4
}

; Function Attrs: nounwind uwtable
define i32 @stbi__gif_info_raw(ptr noundef %0, ptr noundef %1, ptr noundef %2, ptr noundef %3) #0 {
  %5 = alloca i32, align 4
  %6 = alloca ptr, align 8
  %7 = alloca ptr, align 8
  %8 = alloca ptr, align 8
  %9 = alloca ptr, align 8
  %10 = alloca ptr, align 8
  %11 = alloca i32, align 4
  store ptr %0, ptr %6, align 8, !tbaa !3
  store ptr %1, ptr %7, align 8, !tbaa !28
  store ptr %2, ptr %8, align 8, !tbaa !28
  store ptr %3, ptr %9, align 8, !tbaa !28
  call void @llvm.lifetime.start.p0(i64 8, ptr %10) #13
  %12 = call ptr @stbi__malloc(i64 noundef 34928)
  store ptr %12, ptr %10, align 8, !tbaa !3
  %13 = load ptr, ptr %10, align 8, !tbaa !3
  %14 = icmp ne ptr %13, null
  br i1 %14, label %17, label %15

15:                                               ; preds = %4
  %16 = call i32 @stbi__err(ptr noundef @.str.1)
  store i32 %16, ptr %5, align 4
  store i32 1, ptr %11, align 4
  br label %44

17:                                               ; preds = %4
  %18 = load ptr, ptr %6, align 8, !tbaa !3
  %19 = load ptr, ptr %10, align 8, !tbaa !3
  %20 = load ptr, ptr %9, align 8, !tbaa !28
  %21 = call i32 @stbi__gif_header(ptr noundef %18, ptr noundef %19, ptr noundef %20, i32 noundef 1)
  %22 = icmp ne i32 %21, 0
  br i1 %22, label %26, label %23

23:                                               ; preds = %17
  %24 = load ptr, ptr %10, align 8, !tbaa !3
  call void @free(ptr noundef %24) #13
  %25 = load ptr, ptr %6, align 8, !tbaa !3
  call void @stbi__rewind(ptr noundef %25)
  store i32 0, ptr %5, align 4
  store i32 1, ptr %11, align 4
  br label %44

26:                                               ; preds = %17
  %27 = load ptr, ptr %7, align 8, !tbaa !28
  %28 = icmp ne ptr %27, null
  br i1 %28, label %29, label %34

29:                                               ; preds = %26
  %30 = load ptr, ptr %10, align 8, !tbaa !3
  %31 = getelementptr inbounds nuw %struct.stbi__gif, ptr %30, i32 0, i32 0
  %32 = load i32, ptr %31, align 8, !tbaa !63
  %33 = load ptr, ptr %7, align 8, !tbaa !28
  store i32 %32, ptr %33, align 4, !tbaa !9
  br label %34

34:                                               ; preds = %29, %26
  %35 = load ptr, ptr %8, align 8, !tbaa !28
  %36 = icmp ne ptr %35, null
  br i1 %36, label %37, label %42

37:                                               ; preds = %34
  %38 = load ptr, ptr %10, align 8, !tbaa !3
  %39 = getelementptr inbounds nuw %struct.stbi__gif, ptr %38, i32 0, i32 1
  %40 = load i32, ptr %39, align 4, !tbaa !65
  %41 = load ptr, ptr %8, align 8, !tbaa !28
  store i32 %40, ptr %41, align 4, !tbaa !9
  br label %42

42:                                               ; preds = %37, %34
  %43 = load ptr, ptr %10, align 8, !tbaa !3
  call void @free(ptr noundef %43) #13
  store i32 1, ptr %5, align 4
  store i32 1, ptr %11, align 4
  br label %44

44:                                               ; preds = %42, %23, %15
  call void @llvm.lifetime.end.p0(i64 8, ptr %10) #13
  %45 = load i32, ptr %5, align 4
  ret i32 %45
}

; Function Attrs: nounwind uwtable
define i32 @stbi__gif_info(ptr noundef %0, ptr noundef %1, ptr noundef %2, ptr noundef %3) #0 {
  %5 = alloca ptr, align 8
  %6 = alloca ptr, align 8
  %7 = alloca ptr, align 8
  %8 = alloca ptr, align 8
  store ptr %0, ptr %5, align 8, !tbaa !3
  store ptr %1, ptr %6, align 8, !tbaa !28
  store ptr %2, ptr %7, align 8, !tbaa !28
  store ptr %3, ptr %8, align 8, !tbaa !28
  %9 = load ptr, ptr %5, align 8, !tbaa !3
  %10 = load ptr, ptr %6, align 8, !tbaa !28
  %11 = load ptr, ptr %7, align 8, !tbaa !28
  %12 = load ptr, ptr %8, align 8, !tbaa !28
  %13 = call i32 @stbi__gif_info_raw(ptr noundef %9, ptr noundef %10, ptr noundef %11, ptr noundef %12)
  ret i32 %13
}