; Function Attrs: nounwind uwtable
define range(i32 0, 2) i32 @stbi__gif_info(ptr noundef %0, ptr noundef writeonly captures(address_is_null) %1, ptr noundef writeonly captures(address_is_null) %2, ptr noundef captures(address_is_null) %3) local_unnamed_addr #2 {
  %5 = tail call noalias noundef dereferenceable_or_null(34928) ptr @malloc(i64 noundef 34928) #38
  %.not.i = icmp eq ptr %5, null
  br i1 %.not.i, label %6, label %8

6:                                                ; preds = %4
  %7 = tail call align 8 ptr @llvm.threadlocal.address.p0(ptr align 8 @stbi__g_failure_reason)
  store ptr @.str.1, ptr %7, align 8, !tbaa !22
  br label %stbi__gif_info_raw.exit

8:                                                ; preds = %4
  %9 = tail call i32 @stbi__gif_header(ptr noundef %0, ptr noundef nonnull %5, ptr noundef %3, i32 noundef 1)
  %.not16.i = icmp eq i32 %9, 0
  br i1 %.not16.i, label %10, label %17

10:                                               ; preds = %8
  tail call void @free(ptr noundef nonnull %5) #37
  %11 = getelementptr inbounds nuw i8, ptr %0, i64 208
  %12 = load ptr, ptr %11, align 8, !tbaa !13
  %13 = getelementptr inbounds nuw i8, ptr %0, i64 192
  store ptr %12, ptr %13, align 8, !tbaa !14
  %14 = getelementptr inbounds nuw i8, ptr %0, i64 216
  %15 = load ptr, ptr %14, align 8, !tbaa !15
  %16 = getelementptr inbounds nuw i8, ptr %0, i64 200
  store ptr %15, ptr %16, align 8, !tbaa !16
  br label %stbi__gif_info_raw.exit

17:                                               ; preds = %8
  %.not17.i = icmp eq ptr %1, null
  br i1 %.not17.i, label %20, label %18

18:                                               ; preds = %17
  %19 = load i32, ptr %5, align 8, !tbaa !32
  store i32 %19, ptr %1, align 4, !tbaa !23
  br label %20

20:                                               ; preds = %18, %17
  %.not18.i = icmp eq ptr %2, null
  br i1 %.not18.i, label %24, label %21

21:                                               ; preds = %20
  %22 = getelementptr inbounds nuw i8, ptr %5, i64 4
  %23 = load i32, ptr %22, align 4, !tbaa !34
  store i32 %23, ptr %2, align 4, !tbaa !23
  br label %24

24:                                               ; preds = %21, %20
  tail call void @free(ptr noundef nonnull %5) #37
  br label %stbi__gif_info_raw.exit

stbi__gif_info_raw.exit:                          ; preds = %6, %10, %24
  %.0.i = phi i32 [ 1, %24 ], [ 0, %10 ], [ 0, %6 ]
  ret i32 %.0.i
}